ARM GAS  C:\Users\Alex\AppData\Local\Temp\ccJF1Tkk.s 			page 1


   1              		.syntax unified
   2              		.cpu cortex-m3
   3              		.fpu softvfp
   4              		.eabi_attribute 20, 1
   5              		.eabi_attribute 21, 1
   6              		.eabi_attribute 23, 3
   7              		.eabi_attribute 24, 1
   8              		.eabi_attribute 25, 1
   9              		.eabi_attribute 26, 1
  10              		.eabi_attribute 30, 1
  11              		.eabi_attribute 34, 1
  12              		.eabi_attribute 18, 4
  13              		.thumb
  14              		.syntax unified
  15              		.file	"main.c"
  16              		.text
  17              	.Ltext0:
  18              		.cfi_sections	.debug_frame
  19              		.section	.text.Shutdown_PWM_Module,"ax",%progbits
  20              		.align	2
  21              		.global	Shutdown_PWM_Module
  22              		.thumb
  23              		.thumb_func
  24              		.type	Shutdown_PWM_Module, %function
  25              	Shutdown_PWM_Module:
  26              	.LFB63:
  27              		.file 1 "main.c"
   1:main.c        **** /* ========================================
   2:main.c        ****  *
   3:main.c        ****  * Copyright YOUR COMPANY, THE YEAR
   4:main.c        ****  * All Rights Reserved
   5:main.c        ****  * UNPUBLISHED, LICENSED SOFTWARE.
   6:main.c        ****  *
   7:main.c        ****  * CONFIDENTIAL AND PROPRIETARY INFORMATION
   8:main.c        ****  * WHICH IS THE PROPERTY OF your company.
   9:main.c        ****  *
  10:main.c        ****  * ========================================
  11:main.c        **** */
  12:main.c        **** #include "project.h"
  13:main.c        **** 
  14:main.c        **** //NOTE: Make sure to update the definition below to match the PWM source clock
  15:main.c        **** #define PWM_CLOCK 1000000
  16:main.c        **** 
  17:main.c        **** void Shutdown_PWM_Module(uint8_t module_number)
  18:main.c        **** {
  28              		.loc 1 18 0
  29              		.cfi_startproc
  30              		@ args = 0, pretend = 0, frame = 0
  31              		@ frame_needed = 0, uses_anonymous_args = 0
  32              	.LVL0:
  33 0000 08B5     		push	{r3, lr}
  34              		.cfi_def_cfa_offset 8
  35              		.cfi_offset 3, -8
  36              		.cfi_offset 14, -4
  19:main.c        ****     //this function shuts down the corresponding PWM module
  20:main.c        ****     
  21:main.c        ****     if( 1 == module_number )
ARM GAS  C:\Users\Alex\AppData\Local\Temp\ccJF1Tkk.s 			page 2


  37              		.loc 1 21 0
  38 0002 0128     		cmp	r0, #1
  39 0004 02D1     		bne	.L2
  22:main.c        ****     {
  23:main.c        ****         PWM_1_Stop();
  40              		.loc 1 23 0
  41 0006 FFF7FEFF 		bl	PWM_1_Stop
  42              	.LVL1:
  43 000a 08BD     		pop	{r3, pc}
  44              	.LVL2:
  45              	.L2:
  24:main.c        ****     }
  25:main.c        ****     else if( 2 == module_number )
  46              		.loc 1 25 0
  47 000c 0228     		cmp	r0, #2
  48 000e 02D1     		bne	.L4
  26:main.c        ****     {
  27:main.c        ****         PWM_2_Stop();
  49              		.loc 1 27 0
  50 0010 FFF7FEFF 		bl	PWM_2_Stop
  51              	.LVL3:
  52 0014 08BD     		pop	{r3, pc}
  53              	.LVL4:
  54              	.L4:
  28:main.c        ****     }
  29:main.c        ****     else if( 3 == module_number )
  55              		.loc 1 29 0
  56 0016 0328     		cmp	r0, #3
  57 0018 01D1     		bne	.L1
  30:main.c        ****     {
  31:main.c        ****         PWM_3_Stop();
  58              		.loc 1 31 0
  59 001a FFF7FEFF 		bl	PWM_3_Stop
  60              	.LVL5:
  61              	.L1:
  62 001e 08BD     		pop	{r3, pc}
  63              		.cfi_endproc
  64              	.LFE63:
  65              		.size	Shutdown_PWM_Module, .-Shutdown_PWM_Module
  66              		.section	.text.Set_PWM_Period,"ax",%progbits
  67              		.align	2
  68              		.global	Set_PWM_Period
  69              		.thumb
  70              		.thumb_func
  71              		.type	Set_PWM_Period, %function
  72              	Set_PWM_Period:
  73              	.LFB64:
  32:main.c        ****     }
  33:main.c        **** }
  34:main.c        **** 
  35:main.c        **** void Set_PWM_Period( uint16_t period, uint8_t module_number)
  36:main.c        **** {
  74              		.loc 1 36 0
  75              		.cfi_startproc
  76              		@ args = 0, pretend = 0, frame = 0
  77              		@ frame_needed = 0, uses_anonymous_args = 0
  78              	.LVL6:
ARM GAS  C:\Users\Alex\AppData\Local\Temp\ccJF1Tkk.s 			page 3


  79 0000 10B5     		push	{r4, lr}
  80              		.cfi_def_cfa_offset 8
  81              		.cfi_offset 4, -8
  82              		.cfi_offset 14, -4
  83 0002 0446     		mov	r4, r0
  37:main.c        ****     //this function sets the period of the corresponding PWM module
  38:main.c        ****     // as well as sets the compare value to half of the period
  39:main.c        ****     // so that the duty cycle is 50%
  40:main.c        ****     
  41:main.c        ****     if( 1 == module_number )
  84              		.loc 1 41 0
  85 0004 0129     		cmp	r1, #1
  86 0006 07D1     		bne	.L7
  42:main.c        ****     {
  43:main.c        ****         PWM_1_WritePeriod( period );
  87              		.loc 1 43 0
  88 0008 FFF7FEFF 		bl	PWM_1_WritePeriod
  89              	.LVL7:
  44:main.c        ****         PWM_1_WriteCompare( period >> 1 ); //shift left 1 to divide by 2
  90              		.loc 1 44 0
  91 000c 6008     		lsrs	r0, r4, #1
  92 000e FFF7FEFF 		bl	PWM_1_WriteCompare
  93              	.LVL8:
  45:main.c        ****         PWM_1_Start();
  94              		.loc 1 45 0
  95 0012 FFF7FEFF 		bl	PWM_1_Start
  96              	.LVL9:
  97 0016 10BD     		pop	{r4, pc}
  98              	.LVL10:
  99              	.L7:
  46:main.c        ****     }
  47:main.c        ****     else if( 2 == module_number )
 100              		.loc 1 47 0
 101 0018 0229     		cmp	r1, #2
 102 001a 07D1     		bne	.L9
  48:main.c        ****     {
  49:main.c        ****         PWM_2_WritePeriod( period );
 103              		.loc 1 49 0
 104 001c FFF7FEFF 		bl	PWM_2_WritePeriod
 105              	.LVL11:
  50:main.c        ****         PWM_2_WriteCompare( period >> 1 ); //shift left 1 to divide by 2
 106              		.loc 1 50 0
 107 0020 6008     		lsrs	r0, r4, #1
 108 0022 FFF7FEFF 		bl	PWM_2_WriteCompare
 109              	.LVL12:
  51:main.c        ****         PWM_2_Start();
 110              		.loc 1 51 0
 111 0026 FFF7FEFF 		bl	PWM_2_Start
 112              	.LVL13:
 113 002a 10BD     		pop	{r4, pc}
 114              	.LVL14:
 115              	.L9:
  52:main.c        ****     }
  53:main.c        ****     else if( 3 == module_number )
 116              		.loc 1 53 0
 117 002c 0329     		cmp	r1, #3
 118 002e 06D1     		bne	.L6
ARM GAS  C:\Users\Alex\AppData\Local\Temp\ccJF1Tkk.s 			page 4


  54:main.c        ****     {
  55:main.c        ****         PWM_3_WritePeriod( period );
 119              		.loc 1 55 0
 120 0030 FFF7FEFF 		bl	PWM_3_WritePeriod
 121              	.LVL15:
  56:main.c        ****         PWM_3_WriteCompare( period >> 1 ); //shift left 1 to divide by 2
 122              		.loc 1 56 0
 123 0034 6008     		lsrs	r0, r4, #1
 124 0036 FFF7FEFF 		bl	PWM_3_WriteCompare
 125              	.LVL16:
  57:main.c        ****         PWM_3_Start();
 126              		.loc 1 57 0
 127 003a FFF7FEFF 		bl	PWM_3_Start
 128              	.LVL17:
 129              	.L6:
 130 003e 10BD     		pop	{r4, pc}
 131              		.cfi_endproc
 132              	.LFE64:
 133              		.size	Set_PWM_Period, .-Set_PWM_Period
 134              		.section	.text.Set_PWM_Note,"ax",%progbits
 135              		.align	2
 136              		.global	Set_PWM_Note
 137              		.thumb
 138              		.thumb_func
 139              		.type	Set_PWM_Note, %function
 140              	Set_PWM_Note:
 141              	.LFB65:
  58:main.c        ****     }
  59:main.c        **** }
  60:main.c        **** 
  61:main.c        **** void Set_PWM_Note( uint16_t freq, uint8_t module_number )
  62:main.c        **** {
 142              		.loc 1 62 0
 143              		.cfi_startproc
 144              		@ args = 0, pretend = 0, frame = 0
 145              		@ frame_needed = 0, uses_anonymous_args = 0
 146              	.LVL18:
 147 0000 08B5     		push	{r3, lr}
 148              		.cfi_def_cfa_offset 8
 149              		.cfi_offset 3, -8
 150              		.cfi_offset 14, -4
  63:main.c        ****     //takes a desired frequency in Hz, then sets the numbered PWM module to that note.  A freq of 0
  64:main.c        ****     uint16_t period;
  65:main.c        ****     
  66:main.c        ****     //if freq = 0, then turn the module OFF
  67:main.c        ****     if( 0 == freq )
 151              		.loc 1 67 0
 152 0002 18B9     		cbnz	r0, .L12
  68:main.c        ****     {
  69:main.c        ****         Shutdown_PWM_Module(module_number);
 153              		.loc 1 69 0
 154 0004 0846     		mov	r0, r1
 155              	.LVL19:
 156 0006 FFF7FEFF 		bl	Shutdown_PWM_Module
 157              	.LVL20:
 158 000a 08BD     		pop	{r3, pc}
 159              	.LVL21:
ARM GAS  C:\Users\Alex\AppData\Local\Temp\ccJF1Tkk.s 			page 5


 160              	.L12:
 161 000c 0346     		mov	r3, r0
  70:main.c        ****     }
  71:main.c        ****     else  //else then calculate and set the period for the PWM module
  72:main.c        ****     {
  73:main.c        ****         period = PWM_CLOCK / freq;
 162              		.loc 1 73 0
 163 000e 0348     		ldr	r0, .L15
 164              	.LVL22:
 165 0010 90FBF3F0 		sdiv	r0, r0, r3
 166              	.LVL23:
  74:main.c        ****         
  75:main.c        ****         Set_PWM_Period( period, module_number);
 167              		.loc 1 75 0
 168 0014 80B2     		uxth	r0, r0
 169 0016 FFF7FEFF 		bl	Set_PWM_Period
 170              	.LVL24:
 171 001a 08BD     		pop	{r3, pc}
 172              	.L16:
 173              		.align	2
 174              	.L15:
 175 001c 40420F00 		.word	1000000
 176              		.cfi_endproc
 177              	.LFE65:
 178              		.size	Set_PWM_Note, .-Set_PWM_Note
 179              		.section	.text.main,"ax",%progbits
 180              		.align	2
 181              		.global	main
 182              		.thumb
 183              		.thumb_func
 184              		.type	main, %function
 185              	main:
 186              	.LFB66:
  76:main.c        ****     }
  77:main.c        **** }
  78:main.c        **** 
  79:main.c        **** int main(void)
  80:main.c        **** {
 187              		.loc 1 80 0
 188              		.cfi_startproc
 189              		@ Volatile: function does not return.
 190              		@ args = 0, pretend = 0, frame = 0
 191              		@ frame_needed = 0, uses_anonymous_args = 0
 192 0000 08B5     		push	{r3, lr}
 193              		.cfi_def_cfa_offset 8
 194              		.cfi_offset 3, -8
 195              		.cfi_offset 14, -4
  81:main.c        ****     CyGlobalIntEnable; /* Enable global interrupts. */
 196              		.loc 1 81 0
 197              		.syntax unified
 198              	@ 81 "main.c" 1
 199 0002 62B6     		CPSIE   i
 200              	@ 0 "" 2
 201              		.thumb
 202              		.syntax unified
 203              	.L18:
  82:main.c        **** 
ARM GAS  C:\Users\Alex\AppData\Local\Temp\ccJF1Tkk.s 			page 6


  83:main.c        ****     /* Place your initialization/startup code here (e.g. MyInst_Start()) */
  84:main.c        **** 
  85:main.c        ****     for(;;)
  86:main.c        ****     {
  87:main.c        ****         /* Place your application code here. */
  88:main.c        ****         Set_PWM_Note( 100, 1 );
 204              		.loc 1 88 0 discriminator 1
 205 0004 0121     		movs	r1, #1
 206 0006 6420     		movs	r0, #100
 207 0008 FFF7FEFF 		bl	Set_PWM_Note
 208              	.LVL25:
  89:main.c        ****         Set_PWM_Note( 50, 2 );
 209              		.loc 1 89 0 discriminator 1
 210 000c 0221     		movs	r1, #2
 211 000e 3220     		movs	r0, #50
 212 0010 FFF7FEFF 		bl	Set_PWM_Note
 213              	.LVL26:
  90:main.c        ****         Set_PWM_Note( 70, 3 );
 214              		.loc 1 90 0 discriminator 1
 215 0014 0321     		movs	r1, #3
 216 0016 4620     		movs	r0, #70
 217 0018 FFF7FEFF 		bl	Set_PWM_Note
 218              	.LVL27:
  91:main.c        ****         CyDelay(1000);
 219              		.loc 1 91 0 discriminator 1
 220 001c 4FF47A70 		mov	r0, #1000
 221 0020 FFF7FEFF 		bl	CyDelay
 222              	.LVL28:
  92:main.c        ****         Set_PWM_Note( 0, 1 );
 223              		.loc 1 92 0 discriminator 1
 224 0024 0121     		movs	r1, #1
 225 0026 0020     		movs	r0, #0
 226 0028 FFF7FEFF 		bl	Set_PWM_Note
 227              	.LVL29:
  93:main.c        ****         Set_PWM_Note( 0, 2 );
 228              		.loc 1 93 0 discriminator 1
 229 002c 0221     		movs	r1, #2
 230 002e 0020     		movs	r0, #0
 231 0030 FFF7FEFF 		bl	Set_PWM_Note
 232              	.LVL30:
  94:main.c        ****         Set_PWM_Note( 0, 3 );
 233              		.loc 1 94 0 discriminator 1
 234 0034 0321     		movs	r1, #3
 235 0036 0020     		movs	r0, #0
 236 0038 FFF7FEFF 		bl	Set_PWM_Note
 237              	.LVL31:
  95:main.c        ****         CyDelay(1000);
 238              		.loc 1 95 0 discriminator 1
 239 003c 4FF47A70 		mov	r0, #1000
 240 0040 FFF7FEFF 		bl	CyDelay
 241              	.LVL32:
 242 0044 DEE7     		b	.L18
 243              		.cfi_endproc
 244              	.LFE66:
 245              		.size	main, .-main
 246 0046 00BF     		.text
 247              	.Letext0:
ARM GAS  C:\Users\Alex\AppData\Local\Temp\ccJF1Tkk.s 			page 7


 248              		.file 2 "c:\\program files (x86)\\cypress\\psoc creator\\4.1\\psoc creator\\import\\gnu\\arm\\5.4.
 249              		.file 3 "c:\\program files (x86)\\cypress\\psoc creator\\4.1\\psoc creator\\import\\gnu\\arm\\5.4.
 250              		.file 4 "Generated_Source\\PSoC5/PWM_1.h"
 251              		.file 5 "Generated_Source\\PSoC5/PWM_2.h"
 252              		.file 6 "Generated_Source\\PSoC5/PWM_3.h"
 253              		.file 7 "Generated_Source\\PSoC5/CyLib.h"
 254              		.file 8 "Generated_Source\\PSoC5/core_cm3.h"